; Function Attrs: nounwind uwtable
define ptr @l_Std_Time_Month_Quarter_ofMonth(ptr noundef %0) local_unnamed_addr #0 {
  %2 = load ptr, ptr @l_Std_Time_Month_Quarter_ofMonth___closed__1, align 8, !tbaa !11
  %3 = ptrtoint ptr %0 to i64
  %4 = and i64 %3, 1
  %.not.i12 = icmp eq i64 %4, 0
  br i1 %.not.i12, label %.critedge.i, label %5, !prof !13

5:                                                ; preds = %1
  %6 = ptrtoint ptr %2 to i64
  %7 = and i64 %6, 1
  %.not7.i = icmp eq i64 %7, 0
  br i1 %.not7.i, label %.critedge.i, label %8, !prof !13

8:                                                ; preds = %5
  %9 = shl i64 %3, 31
  %10 = ashr i64 %9, 32
  %11 = shl i64 %6, 31
  %12 = ashr i64 %11, 32
  %13 = add nsw i64 %12, %10
  %14 = add nsw i64 %13, 2147483648
  %15 = icmp ult i64 %14, 4294967296
  br i1 %15, label %16, label %21, !prof !10

16:                                               ; preds = %8
  %17 = shl nsw i64 %13, 1
  %18 = and i64 %17, 8589934590
  %19 = or disjoint i64 %18, 1
  %20 = inttoptr i64 %19 to ptr
  br label %lean_int_add.exit

21:                                               ; preds = %8
  %22 = tail call ptr @lean_big_int64_to_int(i64 noundef range(i64 -4611686016279904256, 4611686018427387905) %13) #5
  br label %lean_int_add.exit

.critedge.i:                                      ; preds = %5, %1
  %23 = tail call ptr @lean_int_big_add(ptr noundef %0, ptr noundef %2) #5
  br label %lean_int_add.exit

lean_int_add.exit:                                ; preds = %16, %21, %.critedge.i
  %.0.i = phi ptr [ %23, %.critedge.i ], [ %20, %16 ], [ %22, %21 ]
  %24 = load ptr, ptr @l_Std_Time_Month_instInhabitedQuarter___closed__1, align 8, !tbaa !11
  %25 = ptrtoint ptr %.0.i to i64
  %26 = and i64 %25, 1
  %.not.i13 = icmp eq i64 %26, 0
  br i1 %.not.i13, label %53, label %27, !prof !13

27:                                               ; preds = %lean_int_add.exit
  %28 = ptrtoint ptr %24 to i64
  %29 = and i64 %28, 1
  %.not18.i = icmp eq i64 %29, 0
  br i1 %.not18.i, label %lean_int_ediv.exit.thread22, label %31, !prof !13

lean_int_ediv.exit.thread22:                      ; preds = %27
  %30 = tail call ptr @lean_int_big_ediv(ptr noundef %.0.i, ptr noundef %24) #5
  br label %lean_dec.exit9

31:                                               ; preds = %27
  %32 = lshr i64 %28, 1
  %33 = trunc i64 %32 to i32
  %34 = icmp eq i32 %33, 0
  br i1 %34, label %lean_dec.exit9, label %35

35:                                               ; preds = %31
  %sext.i = shl i64 %32, 32
  %36 = ashr exact i64 %sext.i, 32
  %37 = shl i64 %25, 31
  %38 = ashr i64 %37, 32
  %39 = sdiv i64 %38, %36
  %40 = srem i64 %38, %36
  %41 = icmp slt i64 %40, 0
  %42 = icmp sgt i32 %33, 0
  %.v.i = select i1 %42, i64 -1, i64 1
  %43 = select i1 %41, i64 %.v.i, i64 0
  %.016.i = add nsw i64 %43, %39
  %44 = add nsw i64 %.016.i, 2147483648
  %45 = icmp ult i64 %44, 4294967296
  br i1 %45, label %46, label %51, !prof !10

46:                                               ; preds = %35
  %47 = shl nsw i64 %.016.i, 1
  %48 = and i64 %47, 8589934590
  %49 = or disjoint i64 %48, 1
  %50 = inttoptr i64 %49 to ptr
  br label %lean_dec.exit9

51:                                               ; preds = %35
  %52 = tail call ptr @lean_big_int64_to_int(i64 noundef range(i64 -4611686016279904256, 4611686018427387905) %.016.i) #5
  br label %lean_dec.exit9

53:                                               ; preds = %lean_int_add.exit
  %54 = tail call ptr @lean_int_big_ediv(ptr noundef %.0.i, ptr noundef %24) #5
  %55 = load i32, ptr %.0.i, align 4, !tbaa !5
  %56 = icmp sgt i32 %55, 1
  br i1 %56, label %57, label %59, !prof !10

57:                                               ; preds = %53
  %58 = add nsw i32 %55, -1
  store i32 %58, ptr %.0.i, align 4, !tbaa !5
  br label %lean_dec.exit9

59:                                               ; preds = %53
  %.not.i = icmp eq i32 %55, 0
  br i1 %.not.i, label %lean_dec.exit9, label %60

60:                                               ; preds = %59
  tail call void @lean_dec_ref_cold(ptr noundef nonnull %.0.i) #5
  br label %lean_dec.exit9

lean_dec.exit9:                                   ; preds = %51, %46, %31, %60, %59, %57, %lean_int_ediv.exit.thread22
  %.1.i21 = phi ptr [ %30, %lean_int_ediv.exit.thread22 ], [ %54, %57 ], [ %54, %59 ], [ %54, %60 ], [ %52, %51 ], [ %50, %46 ], [ inttoptr (i64 1 to ptr), %31 ]
  %61 = load ptr, ptr @l_Std_Time_Month_instOfNatOrdinal___closed__1, align 8, !tbaa !11
  %62 = ptrtoint ptr %.1.i21 to i64
  %63 = and i64 %62, 1
  %.not.i15 = icmp eq i64 %63, 0
  br i1 %.not.i15, label %83, label %64, !prof !13

64:                                               ; preds = %lean_dec.exit9
  %65 = ptrtoint ptr %61 to i64
  %66 = and i64 %65, 1
  %.not7.i16 = icmp eq i64 %66, 0
  br i1 %.not7.i16, label %lean_int_add.exit19.thread25, label %68, !prof !13

lean_int_add.exit19.thread25:                     ; preds = %64
  %67 = tail call ptr @lean_int_big_add(ptr noundef %.1.i21, ptr noundef %61) #5
  br label %lean_dec.exit

68:                                               ; preds = %64
  %69 = shl i64 %62, 31
  %70 = ashr i64 %69, 32
  %71 = shl i64 %65, 31
  %72 = ashr i64 %71, 32
  %73 = add nsw i64 %72, %70
  %74 = add nsw i64 %73, 2147483648
  %75 = icmp ult i64 %74, 4294967296
  br i1 %75, label %76, label %81, !prof !10

76:                                               ; preds = %68
  %77 = shl nsw i64 %73, 1
  %78 = and i64 %77, 8589934590
  %79 = or disjoint i64 %78, 1
  %80 = inttoptr i64 %79 to ptr
  br label %lean_dec.exit

81:                                               ; preds = %68
  %82 = tail call ptr @lean_big_int64_to_int(i64 noundef range(i64 -4611686016279904256, 4611686018427387905) %73) #5
  br label %lean_dec.exit

83:                                               ; preds = %lean_dec.exit9
  %84 = tail call ptr @lean_int_big_add(ptr noundef %.1.i21, ptr noundef %61) #5
  %85 = load i32, ptr %.1.i21, align 4, !tbaa !5
  %86 = icmp sgt i32 %85, 1
  br i1 %86, label %87, label %89, !prof !10

87:                                               ; preds = %83
  %88 = add nsw i32 %85, -1
  store i32 %88, ptr %.1.i21, align 4, !tbaa !5
  br label %lean_dec.exit

89:                                               ; preds = %83
  %.not.i10 = icmp eq i32 %85, 0
  br i1 %.not.i10, label %lean_dec.exit, label %90

90:                                               ; preds = %89
  tail call void @lean_dec_ref_cold(ptr noundef nonnull %.1.i21) #5
  br label %lean_dec.exit

lean_dec.exit:                                    ; preds = %81, %76, %90, %89, %87, %lean_int_add.exit19.thread25
  %.0.i1724 = phi ptr [ %67, %lean_int_add.exit19.thread25 ], [ %84, %87 ], [ %84, %89 ], [ %84, %90 ], [ %82, %81 ], [ %80, %76 ]
  ret ptr %.0.i1724
}